target datalayout = "e-m:e-p270:32:32-p271:32:32-p272:64:64-i64:64-i128:128-f80:128-n8:16:32:64-S128"
target triple = "x86_64-pc-linux-gnu"

%"class.std::unique_ptr" = type { %"struct.std::__uniq_ptr_data" }
%"struct.std::__uniq_ptr_data" = type { %"class.std::__uniq_ptr_impl" }
%"class.std::__uniq_ptr_impl" = type { %"class.std::tuple" }
%"class.std::tuple" = type { %"struct.std::_Tuple_impl" }
%"struct.std::_Tuple_impl" = type { %"struct.std::_Head_base.1" }
%"struct.std::_Head_base.1" = type { ptr }
%"class.std::unique_ptr.2" = type { %"struct.std::__uniq_ptr_data.3" }
%"struct.std::__uniq_ptr_data.3" = type { %"class.std::__uniq_ptr_impl.4" }
%"class.std::__uniq_ptr_impl.4" = type { %"class.std::tuple.5" }
%"class.std::tuple.5" = type { %"struct.std::_Tuple_impl.6" }
%"struct.std::_Tuple_impl.6" = type { %"struct.std::_Head_base.9" }
%"struct.std::_Head_base.9" = type { ptr }
%"class.std::unique_ptr.10" = type { %"struct.std::__uniq_ptr_data.11" }
%"struct.std::__uniq_ptr_data.11" = type { %"class.std::__uniq_ptr_impl.12" }
%"class.std::__uniq_ptr_impl.12" = type { %"class.std::tuple.13" }
%"class.std::tuple.13" = type { %"struct.std::_Tuple_impl.14" }
%"struct.std::_Tuple_impl.14" = type { %"struct.std::_Head_base.17" }
%"struct.std::_Head_base.17" = type { ptr }
%"class.llvm::MCObjectStreamer" = type { %"class.llvm::MCStreamer", %"class.std::unique_ptr.36", i8, i8, %"class.llvm::SmallVector.44", %"class.llvm::DenseMap" }
%"class.llvm::MCStreamer" = type { ptr, ptr, %"class.std::unique_ptr.18", %"class.std::vector", %"class.llvm::SmallVector", %"class.std::vector.26", ptr, i64, %"class.llvm::SmallVector.31", ptr, i32, i8, i8, ptr }
%"class.std::unique_ptr.18" = type { %"struct.std::__uniq_ptr_data.19" }
%"struct.std::__uniq_ptr_data.19" = type { %"class.std::__uniq_ptr_impl.20" }
%"class.std::__uniq_ptr_impl.20" = type { %"class.std::tuple.21" }
%"class.std::tuple.21" = type { %"struct.std::_Tuple_impl.22" }
%"struct.std::_Tuple_impl.22" = type { %"struct.std::_Head_base.25" }
%"struct.std::_Head_base.25" = type { ptr }
%"class.std::vector" = type { %"struct.std::_Vector_base" }
%"struct.std::_Vector_base" = type { %"struct.std::_Vector_base<llvm::MCDwarfFrameInfo, std::allocator<llvm::MCDwarfFrameInfo>>::_Vector_impl" }
%"struct.std::_Vector_base<llvm::MCDwarfFrameInfo, std::allocator<llvm::MCDwarfFrameInfo>>::_Vector_impl" = type { %"struct.std::_Vector_base<llvm::MCDwarfFrameInfo, std::allocator<llvm::MCDwarfFrameInfo>>::_Vector_impl_data" }
%"struct.std::_Vector_base<llvm::MCDwarfFrameInfo, std::allocator<llvm::MCDwarfFrameInfo>>::_Vector_impl_data" = type { ptr, ptr, ptr }
%"class.llvm::SmallVector" = type { %"class.llvm::SmallVectorImpl", %"struct.llvm::SmallVectorStorage" }
%"class.llvm::SmallVectorImpl" = type { %"class.llvm::SmallVectorTemplateBase" }
%"class.llvm::SmallVectorTemplateBase" = type { %"class.llvm::SmallVectorTemplateCommon" }
%"class.llvm::SmallVectorTemplateCommon" = type { %"class.llvm::SmallVectorBase" }
%"class.llvm::SmallVectorBase" = type { ptr, i32, i32 }
%"struct.llvm::SmallVectorStorage" = type { [16 x i8] }
%"class.std::vector.26" = type { %"struct.std::_Vector_base.27" }
%"struct.std::_Vector_base.27" = type { %"struct.std::_Vector_base<std::unique_ptr<llvm::WinEH::FrameInfo>, std::allocator<std::unique_ptr<llvm::WinEH::FrameInfo>>>::_Vector_impl" }
%"struct.std::_Vector_base<std::unique_ptr<llvm::WinEH::FrameInfo>, std::allocator<std::unique_ptr<llvm::WinEH::FrameInfo>>>::_Vector_impl" = type { %"struct.std::_Vector_base<std::unique_ptr<llvm::WinEH::FrameInfo>, std::allocator<std::unique_ptr<llvm::WinEH::FrameInfo>>>::_Vector_impl_data" }
%"struct.std::_Vector_base<std::unique_ptr<llvm::WinEH::FrameInfo>, std::allocator<std::unique_ptr<llvm::WinEH::FrameInfo>>>::_Vector_impl_data" = type { ptr, ptr, ptr }
%"class.llvm::SmallVector.31" = type { %"class.llvm::SmallVectorImpl.32", %"struct.llvm::SmallVectorStorage.35" }
%"class.llvm::SmallVectorImpl.32" = type { %"class.llvm::SmallVectorTemplateBase.33" }
%"class.llvm::SmallVectorTemplateBase.33" = type { %"class.llvm::SmallVectorTemplateCommon.34" }
%"class.llvm::SmallVectorTemplateCommon.34" = type { %"class.llvm::SmallVectorBase" }
%"struct.llvm::SmallVectorStorage.35" = type { [128 x i8] }
%"class.std::unique_ptr.36" = type { %"struct.std::__uniq_ptr_data.37" }
%"struct.std::__uniq_ptr_data.37" = type { %"class.std::__uniq_ptr_impl.38" }
%"class.std::__uniq_ptr_impl.38" = type { %"class.std::tuple.39" }
%"class.std::tuple.39" = type { %"struct.std::_Tuple_impl.40" }
%"struct.std::_Tuple_impl.40" = type { %"struct.std::_Head_base.43" }
%"struct.std::_Head_base.43" = type { ptr }
%"class.llvm::SmallVector.44" = type { %"class.llvm::SmallVectorImpl.45", %"struct.llvm::SmallVectorStorage.48" }
%"class.llvm::SmallVectorImpl.45" = type { %"class.llvm::SmallVectorTemplateBase.46" }
%"class.llvm::SmallVectorTemplateBase.46" = type { %"class.llvm::SmallVectorTemplateCommon.47" }
%"class.llvm::SmallVectorTemplateCommon.47" = type { %"class.llvm::SmallVectorBase" }
%"struct.llvm::SmallVectorStorage.48" = type { [80 x i8] }
%"class.llvm::DenseMap" = type <{ ptr, i32, i32, i32, [4 x i8] }>
%"class.llvm::MCAssembler" = type <{ ptr, %"class.std::unique_ptr", %"class.std::unique_ptr.10", %"class.std::unique_ptr.2", i8, i8, [6 x i8], %"class.llvm::SmallVector.131", %"class.llvm::SmallVector.184", %"struct.llvm::MCDwarfLineTableParams", [5 x i8], %"class.llvm::SmallPtrSet", i32, [4 x i8] }>
%"class.llvm::SmallVector.131" = type { %"class.llvm::SmallVectorImpl.132" }
%"class.llvm::SmallVectorImpl.132" = type { %"class.llvm::SmallVectorTemplateBase.133" }
%"class.llvm::SmallVectorTemplateBase.133" = type { %"class.llvm::SmallVectorTemplateCommon.134" }
%"class.llvm::SmallVectorTemplateCommon.134" = type { %"class.llvm::SmallVectorBase" }
%"class.llvm::SmallVector.184" = type { %"class.llvm::SmallVectorImpl.185" }
%"class.llvm::SmallVectorImpl.185" = type { %"class.llvm::SmallVectorTemplateBase.186" }
%"class.llvm::SmallVectorTemplateBase.186" = type { %"class.llvm::SmallVectorTemplateCommon.187" }
%"class.llvm::SmallVectorTemplateCommon.187" = type { %"class.llvm::SmallVectorBase" }
%"struct.llvm::MCDwarfLineTableParams" = type { i8, i8, i8 }
%"class.llvm::SmallPtrSet" = type { %"class.llvm::SmallPtrSetImpl.base", [32 x ptr] }
%"class.llvm::SmallPtrSetImpl.base" = type { %"class.llvm::SmallPtrSetImplBase.base" }
%"class.llvm::SmallPtrSetImplBase.base" = type <{ ptr, ptr, i32, i32, i32 }>
%"struct.llvm::Align" = type { i8 }

@.str.14 = private unnamed_addr constant [46 x i8] c".bundle_align_mode cannot be changed once set\00", align 1

; Function Attrs: mustprogress nounwind uwtable
define linkonce_odr hidden noundef nonnull align 8 dereferenceable(8) ptr @_ZNSt10_Head_baseILm0EPN4llvm11MCAssemblerELb0EE7_M_headERKS3_(ptr noundef nonnull align 8 dereferenceable(8) %0) #0 comdat align 2 {
  %2 = alloca ptr, align 8
  store ptr %0, ptr %2, align 8
  %3 = load ptr, ptr %2, align 8
  %4 = getelementptr inbounds nuw %"struct.std::_Head_base.43", ptr %3, i32 0, i32 0
  ret ptr %4
}

; Function Attrs: mustprogress nounwind uwtable
define linkonce_odr hidden noundef nonnull align 8 dereferenceable(8) ptr @_ZNSt11_Tuple_implILm0EJPN4llvm11MCAssemblerESt14default_deleteIS1_EEE7_M_headERKS5_(ptr noundef nonnull align 8 dereferenceable(8) %0) #0 comdat align 2 {
  %2 = alloca ptr, align 8
  store ptr %0, ptr %2, align 8
  %3 = load ptr, ptr %2, align 8
  %4 = call noundef nonnull align 8 dereferenceable(8) ptr @_ZNSt10_Head_baseILm0EPN4llvm11MCAssemblerELb0EE7_M_headERKS3_(ptr noundef nonnull align 8 dereferenceable(8) %3) #9
  ret ptr %4
}

; Function Attrs: mustprogress nounwind uwtable
define linkonce_odr noundef nonnull align 8 dereferenceable(8) ptr @_ZSt12__get_helperILm0EPN4llvm11MCAssemblerEJSt14default_deleteIS1_EEERKT0_RKSt11_Tuple_implIXT_EJS5_DpT1_EE(ptr noundef nonnull align 8 dereferenceable(8) %0) #0 comdat {
  %2 = alloca ptr, align 8
  store ptr %0, ptr %2, align 8
  %3 = load ptr, ptr %2, align 8
  %4 = call noundef nonnull align 8 dereferenceable(8) ptr @_ZNSt11_Tuple_implILm0EJPN4llvm11MCAssemblerESt14default_deleteIS1_EEE7_M_headERKS5_(ptr noundef nonnull align 8 dereferenceable(8) %3) #9
  ret ptr %4
}

; Function Attrs: mustprogress nounwind uwtable
define linkonce_odr noundef nonnull align 8 dereferenceable(8) ptr @_ZSt3getILm0EJPN4llvm11MCAssemblerESt14default_deleteIS1_EEERKNSt13tuple_elementIXT_ESt5tupleIJDpT0_EEE4typeERKS9_(ptr noundef nonnull align 8 dereferenceable(8) %0) #0 comdat {
  %2 = alloca ptr, align 8
  store ptr %0, ptr %2, align 8
  %3 = load ptr, ptr %2, align 8
  %4 = call noundef nonnull align 8 dereferenceable(8) ptr @_ZSt12__get_helperILm0EPN4llvm11MCAssemblerEJSt14default_deleteIS1_EEERKT0_RKSt11_Tuple_implIXT_EJS5_DpT1_EE(ptr noundef nonnull align 8 dereferenceable(8) %3) #9
  ret ptr %4
}

; Function Attrs: mustprogress nounwind uwtable
define linkonce_odr hidden noundef ptr @_ZNKSt15__uniq_ptr_implIN4llvm11MCAssemblerESt14default_deleteIS1_EE6_M_ptrEv(ptr noundef nonnull align 8 dereferenceable(8) %0) #0 comdat align 2 {
  %2 = alloca ptr, align 8
  store ptr %0, ptr %2, align 8
  %3 = load ptr, ptr %2, align 8
  %4 = getelementptr inbounds nuw %"class.std::__uniq_ptr_impl.38", ptr %3, i32 0, i32 0
  %5 = call noundef nonnull align 8 dereferenceable(8) ptr @_ZSt3getILm0EJPN4llvm11MCAssemblerESt14default_deleteIS1_EEERKNSt13tuple_elementIXT_ESt5tupleIJDpT0_EEE4typeERKS9_(ptr noundef nonnull align 8 dereferenceable(8) %4) #9
  %6 = load ptr, ptr %5, align 8
  ret ptr %6
}

; Function Attrs: mustprogress nounwind uwtable
define linkonce_odr hidden noundef ptr @_ZNKSt10unique_ptrIN4llvm11MCAssemblerESt14default_deleteIS1_EE3getEv(ptr noundef nonnull align 8 dereferenceable(8) %0) #0 comdat align 2 {
  %2 = alloca ptr, align 8
  store ptr %0, ptr %2, align 8
  %3 = load ptr, ptr %2, align 8
  %4 = getelementptr inbounds nuw %"class.std::unique_ptr.36", ptr %3, i32 0, i32 0
  %5 = call noundef ptr @_ZNKSt15__uniq_ptr_implIN4llvm11MCAssemblerESt14default_deleteIS1_EE6_M_ptrEv(ptr noundef nonnull align 8 dereferenceable(8) %4) #9
  ret ptr %5
}

; Function Attrs: mustprogress nounwind uwtable
define linkonce_odr hidden noundef nonnull align 8 dereferenceable(372) ptr @_ZNKSt10unique_ptrIN4llvm11MCAssemblerESt14default_deleteIS1_EEdeEv(ptr noundef nonnull align 8 dereferenceable(8) %0) #0 comdat align 2 {
  %2 = alloca ptr, align 8
  store ptr %0, ptr %2, align 8
  %3 = load ptr, ptr %2, align 8
  br label %4

4:                                                ; preds = %1
  br label %5

5:                                                ; preds = %4
  %6 = call noundef ptr @_ZNKSt10unique_ptrIN4llvm11MCAssemblerESt14default_deleteIS1_EE3getEv(ptr noundef nonnull align 8 dereferenceable(8) %3) #9
  ret ptr %6
}

; Function Attrs: mustprogress nounwind uwtable
define linkonce_odr hidden void @_ZN4llvm11MCAssembler18setBundleAlignSizeEj(ptr noundef nonnull align 8 dereferenceable(372) %0, i32 noundef %1) #0 comdat align 2 {
  %3 = alloca ptr, align 8
  %4 = alloca i32, align 4
  store ptr %0, ptr %3, align 8
  store i32 %1, ptr %4, align 4
  %5 = load ptr, ptr %3, align 8
  %6 = load i32, ptr %4, align 4
  %7 = getelementptr inbounds nuw %"class.llvm::MCAssembler", ptr %5, i32 0, i32 12
  store i32 %6, ptr %7, align 8
  ret void
}

; Function Attrs: mustprogress nounwind uwtable
define linkonce_odr hidden noundef i64 @_ZNK4llvm5Align5valueEv(ptr noundef nonnull align 1 dereferenceable(1) %0) #0 comdat align 2 {
  %2 = alloca ptr, align 8
  store ptr %0, ptr %2, align 8
  %3 = load ptr, ptr %2, align 8
  %4 = getelementptr inbounds nuw %"struct.llvm::Align", ptr %3, i32 0, i32 0
  %5 = load i8, ptr %4, align 1
  %6 = zext i8 %5 to i32
  %7 = zext i32 %6 to i64
  %8 = shl i64 1, %7
  ret i64 %8
}

; Function Attrs: mustprogress nounwind uwtable
define linkonce_odr hidden noundef i32 @_ZNK4llvm11MCAssembler18getBundleAlignSizeEv(ptr noundef nonnull align 8 dereferenceable(372) %0) #0 comdat align 2 {
  %2 = alloca ptr, align 8
  store ptr %0, ptr %2, align 8
  %3 = load ptr, ptr %2, align 8
  %4 = getelementptr inbounds nuw %"class.llvm::MCAssembler", ptr %3, i32 0, i32 12
  %5 = load i32, ptr %4, align 8
  ret i32 %5
}

; Function Attrs: mustprogress nounwind uwtable
define linkonce_odr hidden noundef zeroext i1 @_ZN4llvmgtENS_5AlignEm(i8 %0, i64 noundef %1) #0 comdat {
  %3 = alloca %"struct.llvm::Align", align 1
  %4 = alloca i64, align 8
  %5 = getelementptr inbounds nuw %"struct.llvm::Align", ptr %3, i32 0, i32 0
  store i8 %0, ptr %5, align 1
  store i64 %1, ptr %4, align 8
  %6 = call noundef i64 @_ZNK4llvm5Align5valueEv(ptr noundef nonnull align 1 dereferenceable(1) %3)
  %7 = load i64, ptr %4, align 8
  %8 = icmp ugt i64 %6, %7
  ret i1 %8
}

; Function Attrs: mustprogress nounwind uwtable
define linkonce_odr hidden noundef nonnull align 8 dereferenceable(372) ptr @_ZN4llvm16MCObjectStreamer12getAssemblerEv(ptr noundef nonnull align 8 dereferenceable(424) %0) #0 comdat align 2 {
  %2 = alloca ptr, align 8
  store ptr %0, ptr %2, align 8
  %3 = load ptr, ptr %2, align 8
  %4 = getelementptr inbounds nuw %"class.llvm::MCObjectStreamer", ptr %3, i32 0, i32 1
  %5 = call noundef nonnull align 8 dereferenceable(372) ptr @_ZNKSt10unique_ptrIN4llvm11MCAssemblerESt14default_deleteIS1_EEdeEv(ptr noundef nonnull align 8 dereferenceable(8) %4) #9
  ret ptr %5
}

; Function Attrs: mustprogress nounwind uwtable
define dso_local void @_ZN4llvm13MCELFStreamer19emitBundleAlignModeENS_5AlignE(ptr noundef nonnull align 8 dereferenceable(6601) %0, i8 %1) unnamed_addr #0 align 2 {
  %3 = alloca %"struct.llvm::Align", align 1
  %4 = alloca ptr, align 8
  %5 = alloca ptr, align 8
  %6 = alloca %"struct.llvm::Align", align 1
  %7 = getelementptr inbounds nuw %"struct.llvm::Align", ptr %3, i32 0, i32 0
  store i8 %1, ptr %7, align 1
  store ptr %0, ptr %4, align 8
  %8 = load ptr, ptr %4, align 8
  %9 = call noundef nonnull align 8 dereferenceable(372) ptr @_ZN4llvm16MCObjectStreamer12getAssemblerEv(ptr noundef nonnull align 8 dereferenceable(424) %8)
  store ptr %9, ptr %5, align 8
  call void @llvm.memcpy.p0.p0.i64(ptr align 1 %6, ptr align 1 %3, i64 1, i1 false)
  %10 = getelementptr inbounds nuw %"struct.llvm::Align", ptr %6, i32 0, i32 0
  %11 = load i8, ptr %10, align 1
  %12 = call noundef zeroext i1 @_ZN4llvmgtENS_5AlignEm(i8 %11, i64 noundef 1)
  br i1 %12, label %13, label %27

13:                                               ; preds = %2
  %14 = load ptr, ptr %5, align 8
  %15 = call noundef i32 @_ZNK4llvm11MCAssembler18getBundleAlignSizeEv(ptr noundef nonnull align 8 dereferenceable(372) %14)
  %16 = icmp eq i32 %15, 0
  br i1 %16, label %23, label %17

17:                                               ; preds = %13
  %18 = load ptr, ptr %5, align 8
  %19 = call noundef i32 @_ZNK4llvm11MCAssembler18getBundleAlignSizeEv(ptr noundef nonnull align 8 dereferenceable(372) %18)
  %20 = zext i32 %19 to i64
  %21 = call noundef i64 @_ZNK4llvm5Align5valueEv(ptr noundef nonnull align 1 dereferenceable(1) %3)
  %22 = icmp eq i64 %20, %21
  br i1 %22, label %23, label %27

23:                                               ; preds = %17, %13
  %24 = load ptr, ptr %5, align 8
  %25 = call noundef i64 @_ZNK4llvm5Align5valueEv(ptr noundef nonnull align 1 dereferenceable(1) %3)
  %26 = trunc i64 %25 to i32
  call void @_ZN4llvm11MCAssembler18setBundleAlignSizeEj(ptr noundef nonnull align 8 dereferenceable(372) %24, i32 noundef %26)
  br label %28

27:                                               ; preds = %17, %2
  call void @_ZN4llvm18report_fatal_errorEPKcb(ptr noundef @.str.14, i1 noundef zeroext true) #10
  unreachable

28:                                               ; preds = %23
  ret void
}