; Function Attrs: mustprogress nounwind uwtable
define dso_local void @_ZN4llvm13MCELFStreamer19emitBundleAlignModeENS_5AlignE(ptr nocapture noundef nonnull readonly align 8 dereferenceable(6601) %0, i8 %1) unnamed_addr #0 align 2 {
  %.not = icmp eq i8 %1, 0
  br i1 %.not, label %15, label %3

3:                                                ; preds = %2
  %4 = zext nneg i8 %1 to i64
  %5 = getelementptr inbounds nuw i8, ptr %0, i64 288
  %6 = load ptr, ptr %5, align 8
  %7 = getelementptr inbounds nuw i8, ptr %6, i64 368
  %8 = load i32, ptr %7, align 8
  %9 = icmp eq i32 %8, 0
  %10 = zext i32 %8 to i64
  %11 = shl nuw i64 1, %4
  %12 = icmp eq i64 %11, %10
  %or.cond = select i1 %9, i1 true, i1 %12
  br i1 %or.cond, label %13, label %15

13:                                               ; preds = %3
  %14 = trunc i64 %11 to i32
  store i32 %14, ptr %7, align 8
  ret void

15:                                               ; preds = %3, %2
  tail call void @_ZN4llvm18report_fatal_errorEPKcb(ptr noundef nonnull @.str.14, i1 noundef zeroext true) #16
  unreachable
}